target datalayout = "e-m:e-p270:32:32-p271:32:32-p272:64:64-i64:64-i128:128-f80:128-n8:16:32:64-S128"
target triple = "x86_64-unknown-linux-gnu"

%"class.icu_75::IcuCApiHelper.0" = type { i32 }

@_ZN6icu_7518UFormattedListImplD1Ev = unnamed_addr alias void (ptr), ptr @_ZN6icu_7518UFormattedListImplD2Ev

; Function Attrs: mustprogress nounwind uwtable
define internal noundef signext i8 @_ZL9U_FAILURE10UErrorCode(i32 noundef %code) #0 {
entry:
  %code.addr = alloca i32, align 4
  store i32 %code, ptr %code.addr, align 4
  %0 = load i32, ptr %code.addr, align 4
  %cmp = icmp sgt i32 %0, 0
  %conv = zext i1 %cmp to i8
  ret i8 %conv
}

; Function Attrs: mustprogress nounwind uwtable
define linkonce_odr noundef ptr @_ZN6icu_7513IcuCApiHelperI14UFormattedListNS_18UFormattedListImplELi1179407188EE8validateEPKS1_R10UErrorCode(ptr noundef %input, ptr noundef nonnull align 4 dereferenceable(4) %status) #0 comdat align 2 {
entry:
  %retval = alloca ptr, align 8
  %input.addr = alloca ptr, align 8
  %status.addr = alloca ptr, align 8
  %impl = alloca ptr, align 8
  store ptr %input, ptr %input.addr, align 8
  store ptr %status, ptr %status.addr, align 8
  %0 = load ptr, ptr %status.addr, align 8
  %1 = load i32, ptr %0, align 4
  %call = call noundef signext i8 @_ZL9U_FAILURE10UErrorCode(i32 noundef %1)
  %tobool = icmp ne i8 %call, 0
  br i1 %tobool, label %if.then, label %if.end

if.then:                                          ; preds = %entry
  store ptr null, ptr %retval, align 8
  br label %return

if.end:                                           ; preds = %entry
  %2 = load ptr, ptr %input.addr, align 8
  %cmp = icmp eq ptr %2, null
  br i1 %cmp, label %if.then1, label %if.end2

if.then1:                                         ; preds = %if.end
  %3 = load ptr, ptr %status.addr, align 8
  store i32 1, ptr %3, align 4
  store ptr null, ptr %retval, align 8
  br label %return

if.end2:                                          ; preds = %if.end
  %4 = load ptr, ptr %input.addr, align 8
  store ptr %4, ptr %impl, align 8
  %5 = load ptr, ptr %impl, align 8
  %6 = icmp eq ptr %5, null
  br i1 %6, label %cast.end, label %cast.notnull

cast.notnull:                                     ; preds = %if.end2
  %add.ptr = getelementptr inbounds i8, ptr %5, i64 16
  br label %cast.end

cast.end:                                         ; preds = %cast.notnull, %if.end2
  %cast.result = phi ptr [ %add.ptr, %cast.notnull ], [ null, %if.end2 ]
  %fMagic = getelementptr inbounds %"class.icu_75::IcuCApiHelper.0", ptr %cast.result, i32 0, i32 0
  %7 = load i32, ptr %fMagic, align 4
  %cmp3 = icmp ne i32 %7, 1179407188
  br i1 %cmp3, label %if.then4, label %if.end5

if.then4:                                         ; preds = %cast.end
  %8 = load ptr, ptr %status.addr, align 8
  store i32 3, ptr %8, align 4
  store ptr null, ptr %retval, align 8
  br label %return

if.end5:                                          ; preds = %cast.end
  %9 = load ptr, ptr %impl, align 8
  store ptr %9, ptr %retval, align 8
  br label %return

return:                                           ; preds = %if.end5, %if.then4, %if.then1, %if.then
  %10 = load ptr, ptr %retval, align 8
  ret ptr %10
}

; Function Attrs: mustprogress nounwind uwtable
define linkonce_odr noundef ptr @_ZN6icu_7513IcuCApiHelperI14UFormattedListNS_18UFormattedListImplELi1179407188EE8validateEPS1_R10UErrorCode(ptr noundef %input, ptr noundef nonnull align 4 dereferenceable(4) %status) #0 comdat align 2 {
entry:
  %input.addr = alloca ptr, align 8
  %status.addr = alloca ptr, align 8
  %constInput = alloca ptr, align 8
  %validated = alloca ptr, align 8
  store ptr %input, ptr %input.addr, align 8
  store ptr %status, ptr %status.addr, align 8
  %0 = load ptr, ptr %input.addr, align 8
  store ptr %0, ptr %constInput, align 8
  %1 = load ptr, ptr %constInput, align 8
  %2 = load ptr, ptr %status.addr, align 8
  %call = call noundef ptr @_ZN6icu_7513IcuCApiHelperI14UFormattedListNS_18UFormattedListImplELi1179407188EE8validateEPKS1_R10UErrorCode(ptr noundef %1, ptr noundef nonnull align 4 dereferenceable(4) %2)
  store ptr %call, ptr %validated, align 8
  %3 = load ptr, ptr %validated, align 8
  ret ptr %3
}

; Function Attrs: mustprogress uwtable
define void @ulistfmt_closeResult_75(ptr noundef %uresult) #1 {
entry:
  %uresult.addr = alloca ptr, align 8
  %localStatus = alloca i32, align 4
  %impl = alloca ptr, align 8
  store ptr %uresult, ptr %uresult.addr, align 8
  store i32 0, ptr %localStatus, align 4
  %0 = load ptr, ptr %uresult.addr, align 8
  %call = call noundef ptr @_ZN6icu_7513IcuCApiHelperI14UFormattedListNS_18UFormattedListImplELi1179407188EE8validateEPS1_R10UErrorCode(ptr noundef %0, ptr noundef nonnull align 4 dereferenceable(4) %localStatus)
  store ptr %call, ptr %impl, align 8
  %1 = load ptr, ptr %impl, align 8
  %isnull = icmp eq ptr %1, null
  br i1 %isnull, label %delete.end, label %delete.notnull

delete.notnull:                                   ; preds = %entry
  call void @_ZN6icu_7518UFormattedListImplD1Ev(ptr noundef nonnull align 8 dereferenceable(48) %1) #8
  call void @_ZN6icu_757UMemorydlEPv(ptr noundef %1) #8
  br label %delete.end

delete.end:                                       ; preds = %delete.notnull, %entry
  ret void
}