; Function Attrs: mustprogress uwtable
define void @ulistfmt_closeResult_75(ptr noundef %uresult) local_unnamed_addr #1 {
if.end.i.i:
  %cmp.i.i = icmp eq ptr %uresult, null
  br i1 %cmp.i.i, label %delete.end, label %if.end2.i.i

if.end2.i.i:                                      ; preds = %if.end.i.i
  %add.ptr.i.i = getelementptr inbounds i8, ptr %uresult, i64 16
  %0 = load i32, ptr %add.ptr.i.i, align 4
  %cmp3.not.i.i = icmp eq i32 %0, 1179407188
  br i1 %cmp3.not.i.i, label %delete.notnull, label %delete.end

delete.notnull:                                   ; preds = %if.end2.i.i
  tail call void @_ZN6icu_7518UFormattedListImplD1Ev(ptr noundef nonnull align 8 dereferenceable(48) %uresult) #10
  tail call void @_ZN6icu_757UMemorydlEPv(ptr noundef nonnull %uresult) #10
  br label %delete.end

delete.end:                                       ; preds = %if.end2.i.i, %if.end.i.i, %delete.notnull
  ret void
}